target datalayout = "e-m:e-p270:32:32-p271:32:32-p272:64:64-i64:64-i128:128-f80:128-n8:16:32:64-S128"
target triple = "x86_64-pc-linux-gnu"

%struct.UpgradeTaskReport = type { ptr, [1024 x i8] }
%struct.DbInfo = type { i32, ptr, [1024 x i8], %struct.RelInfoArr, %struct.LogicalSlotInfoArr }
%struct.RelInfoArr = type { ptr, i32 }
%struct.LogicalSlotInfoArr = type { i32, ptr }

@.str.23 = private unnamed_addr constant [2 x i8] c"w\00", align 1
@.str.24 = private unnamed_addr constant [29 x i8] c"could not open file \22%s\22: %m\00", align 1
@.str.75 = private unnamed_addr constant [8 x i8] c"nspname\00", align 1
@.str.76 = private unnamed_addr constant [8 x i8] c"relname\00", align 1
@.str.83 = private unnamed_addr constant [17 x i8] c"In database: %s\0A\00", align 1
@.str.121 = private unnamed_addr constant [9 x i8] c"  %s.%s\0A\00", align 1

; Function Attrs: nounwind uwtable
define internal void @process_with_oids_check(ptr noundef %0, ptr noundef %1, ptr noundef %2) #0 {
  %4 = alloca ptr, align 8
  %5 = alloca ptr, align 8
  %6 = alloca ptr, align 8
  %7 = alloca ptr, align 8
  %8 = alloca i32, align 4
  %9 = alloca i32, align 4
  %10 = alloca i32, align 4
  %11 = alloca i32, align 4
  %12 = alloca i32, align 4
  store ptr %0, ptr %4, align 8
  store ptr %1, ptr %5, align 8
  store ptr %2, ptr %6, align 8
  call void @llvm.lifetime.start.p0(i64 8, ptr %7) #9
  %13 = load ptr, ptr %6, align 8
  store ptr %13, ptr %7, align 8
  call void @llvm.lifetime.start.p0(i64 4, ptr %8) #9
  %14 = load ptr, ptr %5, align 8
  %15 = call i32 @PQntuples(ptr noundef %14)
  store i32 %15, ptr %8, align 4
  call void @llvm.lifetime.start.p0(i64 4, ptr %9) #9
  %16 = load ptr, ptr %5, align 8
  %17 = call i32 @PQfnumber(ptr noundef %16, ptr noundef @.str.75)
  store i32 %17, ptr %9, align 4
  call void @llvm.lifetime.start.p0(i64 4, ptr %10) #9
  %18 = load ptr, ptr %5, align 8
  %19 = call i32 @PQfnumber(ptr noundef %18, ptr noundef @.str.76)
  store i32 %19, ptr %10, align 4
  br label %20

20:                                               ; preds = %3
  br label %21

21:                                               ; preds = %20
  br label %22

22:                                               ; preds = %21
  %23 = load i32, ptr %8, align 4
  %24 = icmp eq i32 %23, 0
  br i1 %24, label %25, label %26

25:                                               ; preds = %22
  store i32 1, ptr %11, align 4
  br label %73

26:                                               ; preds = %22
  %27 = load ptr, ptr %7, align 8
  %28 = getelementptr inbounds nuw %struct.UpgradeTaskReport, ptr %27, i32 0, i32 0
  %29 = load ptr, ptr %28, align 8
  %30 = icmp eq ptr %29, null
  br i1 %30, label %31, label %43

31:                                               ; preds = %26
  %32 = load ptr, ptr %7, align 8
  %33 = getelementptr inbounds nuw %struct.UpgradeTaskReport, ptr %32, i32 0, i32 1
  %34 = getelementptr inbounds [1024 x i8], ptr %33, i64 0, i64 0
  %35 = call noalias ptr @fopen(ptr noundef %34, ptr noundef @.str.23)
  %36 = load ptr, ptr %7, align 8
  %37 = getelementptr inbounds nuw %struct.UpgradeTaskReport, ptr %36, i32 0, i32 0
  store ptr %35, ptr %37, align 8
  %38 = icmp eq ptr %35, null
  br i1 %38, label %39, label %43

39:                                               ; preds = %31
  %40 = load ptr, ptr %7, align 8
  %41 = getelementptr inbounds nuw %struct.UpgradeTaskReport, ptr %40, i32 0, i32 1
  %42 = getelementptr inbounds [1024 x i8], ptr %41, i64 0, i64 0
  call void (ptr, ...) @pg_fatal(ptr noundef @.str.24, ptr noundef %42) #11
  unreachable

43:                                               ; preds = %31, %26
  %44 = load ptr, ptr %7, align 8
  %45 = getelementptr inbounds nuw %struct.UpgradeTaskReport, ptr %44, i32 0, i32 0
  %46 = load ptr, ptr %45, align 8
  %47 = load ptr, ptr %4, align 8
  %48 = getelementptr inbounds nuw %struct.DbInfo, ptr %47, i32 0, i32 1
  %49 = load ptr, ptr %48, align 8
  %50 = call i32 (ptr, ptr, ...) @pg_fprintf(ptr noundef %46, ptr noundef @.str.83, ptr noundef %49)
  call void @llvm.lifetime.start.p0(i64 4, ptr %12) #9
  store i32 0, ptr %12, align 4
  br label %51

51:                                               ; preds = %69, %43
  %52 = load i32, ptr %12, align 4
  %53 = load i32, ptr %8, align 4
  %54 = icmp slt i32 %52, %53
  br i1 %54, label %56, label %55

55:                                               ; preds = %51
  store i32 4, ptr %11, align 4
  call void @llvm.lifetime.end.p0(i64 4, ptr %12) #9
  br label %72

56:                                               ; preds = %51
  %57 = load ptr, ptr %7, align 8
  %58 = getelementptr inbounds nuw %struct.UpgradeTaskReport, ptr %57, i32 0, i32 0
  %59 = load ptr, ptr %58, align 8
  %60 = load ptr, ptr %5, align 8
  %61 = load i32, ptr %12, align 4
  %62 = load i32, ptr %9, align 4
  %63 = call ptr @PQgetvalue(ptr noundef %60, i32 noundef %61, i32 noundef %62)
  %64 = load ptr, ptr %5, align 8
  %65 = load i32, ptr %12, align 4
  %66 = load i32, ptr %10, align 4
  %67 = call ptr @PQgetvalue(ptr noundef %64, i32 noundef %65, i32 noundef %66)
  %68 = call i32 (ptr, ptr, ...) @pg_fprintf(ptr noundef %59, ptr noundef @.str.121, ptr noundef %63, ptr noundef %67)
  br label %69

69:                                               ; preds = %56
  %70 = load i32, ptr %12, align 4
  %71 = add i32 %70, 1
  store i32 %71, ptr %12, align 4
  br label %51, !llvm.loop !25

72:                                               ; preds = %55
  store i32 0, ptr %11, align 4
  br label %73

73:                                               ; preds = %72, %25
  call void @llvm.lifetime.end.p0(i64 4, ptr %10) #9
  call void @llvm.lifetime.end.p0(i64 4, ptr %9) #9
  call void @llvm.lifetime.end.p0(i64 4, ptr %8) #9
  call void @llvm.lifetime.end.p0(i64 8, ptr %7) #9
  %74 = load i32, ptr %11, align 4
  switch i32 %74, label %76 [
    i32 0, label %75
    i32 1, label %75
  ]

75:                                               ; preds = %73, %73
  ret void

76:                                               ; preds = %73
  unreachable
}