; Function Attrs: nounwind uwtable
define internal void @process_with_oids_check(ptr noundef readonly captures(none) %0, ptr noundef %1, ptr noundef %2) #0 {
  %4 = tail call i32 @PQntuples(ptr noundef %1) #10
  %5 = tail call i32 @PQfnumber(ptr noundef %1, ptr noundef nonnull @.str.75) #10
  %6 = tail call i32 @PQfnumber(ptr noundef %1, ptr noundef nonnull @.str.76) #10
  %7 = icmp eq i32 %4, 0
  br i1 %7, label %.loopexit, label %8

8:                                                ; preds = %3
  %9 = load ptr, ptr %2, align 8
  %10 = icmp eq ptr %9, null
  br i1 %10, label %11, label %16

11:                                               ; preds = %8
  %12 = getelementptr inbounds nuw i8, ptr %2, i64 8
  %13 = tail call noalias ptr @fopen(ptr noundef nonnull %12, ptr noundef nonnull @.str.23)
  store ptr %13, ptr %2, align 8
  %14 = icmp eq ptr %13, null
  br i1 %14, label %15, label %16

15:                                               ; preds = %11
  tail call void (ptr, ...) @pg_fatal(ptr noundef nonnull @.str.24, ptr noundef nonnull %12) #12
  unreachable

16:                                               ; preds = %11, %8
  %17 = phi ptr [ %13, %11 ], [ %9, %8 ]
  %18 = getelementptr inbounds nuw i8, ptr %0, i64 8
  %19 = load ptr, ptr %18, align 8
  %20 = tail call i32 (ptr, ptr, ...) @pg_fprintf(ptr noundef nonnull %17, ptr noundef nonnull @.str.83, ptr noundef %19) #10
  %21 = icmp sgt i32 %4, 0
  br i1 %21, label %.lr.ph, label %.loopexit

.lr.ph:                                           ; preds = %16, %.lr.ph
  %.021 = phi i32 [ %26, %.lr.ph ], [ 0, %16 ]
  %22 = load ptr, ptr %2, align 8
  %23 = tail call ptr @PQgetvalue(ptr noundef %1, i32 noundef %.021, i32 noundef %5) #10
  %24 = tail call ptr @PQgetvalue(ptr noundef %1, i32 noundef %.021, i32 noundef %6) #10
  %25 = tail call i32 (ptr, ptr, ...) @pg_fprintf(ptr noundef %22, ptr noundef nonnull @.str.121, ptr noundef %23, ptr noundef %24) #10
  %26 = add nuw nsw i32 %.021, 1
  %exitcond.not = icmp eq i32 %26, %4
  br i1 %exitcond.not, label %.loopexit, label %.lr.ph, !llvm.loop !25

.loopexit:                                        ; preds = %.lr.ph, %16, %3
  ret void
}